; Function Attrs: mustprogress uwtable
define hidden noundef i32 @_ZN7min_cut8new_nodeEv(ptr noundef nonnull align 8 dereferenceable(24) %0) local_unnamed_addr #3 align 2 personality ptr @__gxx_personality_v0 {
  %2 = alloca %class.svector.1, align 8
  call void @llvm.lifetime.start.p0(i64 8, ptr nonnull %2) #21
  store ptr null, ptr %2, align 8, !tbaa !3
  %3 = load ptr, ptr %0, align 8, !tbaa !9
  %4 = icmp eq ptr %3, null
  br i1 %4, label %11, label %5

5:                                                ; preds = %1
  %6 = getelementptr inbounds i8, ptr %3, i64 -4
  %7 = load i32, ptr %6, align 4, !tbaa !12
  %8 = getelementptr inbounds i8, ptr %3, i64 -8
  %9 = load i32, ptr %8, align 4, !tbaa !12
  %10 = icmp eq i32 %7, %9
  br i1 %10, label %11, label %_ZNK6vectorI7svectorIN7min_cut4edgeEjELb1EjE4sizeEv.exit

11:                                               ; preds = %5, %1
  invoke void @_ZN6vectorI7svectorIN7min_cut4edgeEjELb1EjE13expand_vectorEv(ptr noundef nonnull align 8 dereferenceable(8) %0)
          to label %.noexc unwind label %18

.noexc:                                           ; preds = %11
  %.pre.i = load ptr, ptr %0, align 8, !tbaa !9
  %.phi.trans.insert.i = getelementptr inbounds i8, ptr %.pre.i, i64 -4
  %.pre2.i = load i32, ptr %.phi.trans.insert.i, align 4, !tbaa !12
  br label %_ZNK6vectorI7svectorIN7min_cut4edgeEjELb1EjE4sizeEv.exit

_ZNK6vectorI7svectorIN7min_cut4edgeEjELb1EjE4sizeEv.exit: ; preds = %5, %.noexc
  %12 = phi i32 [ %.pre2.i, %.noexc ], [ %7, %5 ]
  %13 = phi ptr [ %.pre.i, %.noexc ], [ %3, %5 ]
  %14 = getelementptr inbounds i8, ptr %13, i64 -4
  %15 = zext i32 %12 to i64
  %16 = getelementptr inbounds nuw %class.svector.1, ptr %13, i64 %15
  store ptr null, ptr %16, align 8, !tbaa !14
  %17 = add i32 %12, 1
  store i32 %17, ptr %14, align 4, !tbaa !12
  call void @llvm.lifetime.end.p0(i64 8, ptr nonnull %2) #21
  ret i32 %12

18:                                               ; preds = %11
  %19 = landingpad { ptr, i32 }
          cleanup
  call void @_ZN6vectorIN7min_cut4edgeELb0EjED2Ev(ptr noundef nonnull align 8 dereferenceable(8) %2) #21
  call void @llvm.lifetime.end.p0(i64 8, ptr nonnull %2) #21
  resume { ptr, i32 } %19
}